; Function Attrs: mustprogress nofree norecurse nosync nounwind willreturn memory(argmem: read) uwtable
define dso_local noundef zeroext i1 @_ZNK4Luau22NormalizedFunctionType7isNeverEv(ptr noundef nonnull readonly align 8 captures(none) dereferenceable(80) %0) local_unnamed_addr #7 align 2 {
  %2 = load i8, ptr %0, align 8, !tbaa !102, !range !34, !noundef !35
  %3 = trunc nuw i8 %2 to i1
  %4 = getelementptr inbounds nuw i8, ptr %0, i64 48
  %5 = load ptr, ptr %4, align 8
  %6 = getelementptr inbounds nuw i8, ptr %0, i64 56
  %7 = load ptr, ptr %6, align 8
  %8 = icmp eq ptr %5, %7
  %not. = xor i1 %3, true
  %9 = select i1 %not., i1 %8, i1 false
  ret i1 %9
}